target datalayout = "e-m:e-p270:32:32-p271:32:32-p272:64:64-i64:64-i128:128-f80:128-n8:16:32:64-S128"
target triple = "x86_64-pc-linux-gnu"

%struct._address = type { i32, i32, ptr, ptr }
%struct._packet_info = type { ptr, ptr, i32, i32, %struct.nstime_t, %struct.nstime_t, %struct.nstime_t, i8, ptr, ptr, ptr, ptr, %struct._address, %struct._address, %struct._address, %struct._address, %struct._address, %struct._address, i32, ptr, i8, [3 x i8], %struct.anon.1, i32, i32, i32, i32, ptr, i8, ptr, ptr, i16, i16, i32, i32, i16, i32, i32, ptr, ptr, ptr, i8, i8, i16, i16, i16, i32, i16, i16, ptr, ptr, ptr, ptr, ptr, i32, i32 }
%struct.nstime_t = type { i64, i32 }
%struct.anon.1 = type { i8, [3 x i8] }
%struct._frame_data = type <{ i32, i32, i32, i32, i32, [4 x i8], i64, ptr, ptr, ptr, i8, i16, [5 x i8], %struct.nstime_t, %struct.nstime_t, i32, i32 }>
%struct._http_info_value_t = type { i32, ptr, i32, ptr, ptr, ptr, ptr, ptr, ptr }
%struct._http_req_res_t = type { i32, i32, i32, %struct.nstime_t, i32, ptr, ptr, ptr, ptr, i8, i8, ptr }

@hf_http_request_method = internal global i32 0, align 4
@hf_http_request_uri = internal global i32 0, align 4
@hf_http_request_version = internal global i32 0, align 4
@proto_http = internal global i32 0, align 4

; Function Attrs: null_pointer_is_valid sspstrong uwtable
define internal void @basic_request_dissector(ptr noundef %0, ptr noundef %1, ptr noundef %2, i32 noundef %3, ptr noundef %4, ptr noundef %5, ptr noundef %6, ptr noundef %7) #0 {
  %9 = alloca ptr, align 8
  %10 = alloca ptr, align 8
  %11 = alloca ptr, align 8
  %12 = alloca i32, align 4
  %13 = alloca ptr, align 8
  %14 = alloca ptr, align 8
  %15 = alloca ptr, align 8
  %16 = alloca ptr, align 8
  %17 = alloca ptr, align 8
  %18 = alloca ptr, align 8
  %19 = alloca i32, align 4
  %20 = alloca ptr, align 8
  %21 = alloca ptr, align 8
  %22 = alloca i32, align 4
  store ptr %0, ptr %9, align 8
  store ptr %1, ptr %10, align 8
  store ptr %2, ptr %11, align 8
  store i32 %3, ptr %12, align 4
  store ptr %4, ptr %13, align 8
  store ptr %5, ptr %14, align 8
  store ptr %6, ptr %15, align 8
  store ptr %7, ptr %16, align 8
  call void @llvm.lifetime.start.p0(i64 8, ptr %17) #19
  call void @llvm.lifetime.start.p0(i64 8, ptr %18) #19
  call void @llvm.lifetime.start.p0(i64 4, ptr %19) #19
  call void @llvm.lifetime.start.p0(i64 8, ptr %20) #19
  call void @llvm.lifetime.start.p0(i64 8, ptr %21) #19
  %23 = load ptr, ptr %9, align 8
  %24 = getelementptr inbounds nuw %struct._packet_info, ptr %23, i32 0, i32 51
  %25 = load ptr, ptr %24, align 8
  %26 = load ptr, ptr %9, align 8
  %27 = load i32, ptr @proto_http, align 4
  %28 = call ptr @p_get_proto_data(ptr noundef %25, ptr noundef %26, i32 noundef %27, i32 noundef 1)
  store ptr %28, ptr %21, align 8
  %29 = load ptr, ptr %13, align 8
  %30 = load ptr, ptr %14, align 8
  %31 = call i32 @get_token_len(ptr noundef %29, ptr noundef %30, ptr noundef %17)
  store i32 %31, ptr %19, align 4
  %32 = load i32, ptr %19, align 4
  %33 = icmp eq i32 %32, 0
  br i1 %33, label %34, label %35

34:                                               ; preds = %8
  store i32 1, ptr %22, align 4
  br label %152

35:                                               ; preds = %8
  %36 = load ptr, ptr %11, align 8
  %37 = load i32, ptr @hf_http_request_method, align 4
  %38 = load ptr, ptr %10, align 8
  %39 = load i32, ptr %12, align 4
  %40 = load i32, ptr %19, align 4
  %41 = call ptr @proto_tree_add_item(ptr noundef %36, i32 noundef %37, ptr noundef %38, i32 noundef %39, i32 noundef %40, i32 noundef 0)
  %42 = load ptr, ptr %17, align 8
  %43 = load ptr, ptr %13, align 8
  %44 = ptrtoint ptr %42 to i64
  %45 = ptrtoint ptr %43 to i64
  %46 = sub i64 %44, %45
  %47 = icmp sgt i64 %46, 2
  br i1 %47, label %48, label %63

48:                                               ; preds = %35
  %49 = load ptr, ptr %17, align 8
  %50 = getelementptr i8, ptr %49, i64 -1
  %51 = load i8, ptr %50, align 1
  %52 = zext i8 %51 to i32
  %53 = icmp eq i32 %52, 32
  br i1 %53, label %54, label %63

54:                                               ; preds = %48
  %55 = load ptr, ptr %17, align 8
  %56 = getelementptr i8, ptr %55, i64 -2
  %57 = load i8, ptr %56, align 1
  %58 = zext i8 %57 to i32
  %59 = icmp eq i32 %58, 32
  br i1 %59, label %60, label %63

60:                                               ; preds = %54
  %61 = load ptr, ptr %17, align 8
  %62 = getelementptr i8, ptr %61, i32 -1
  store ptr %62, ptr %17, align 8
  br label %63

63:                                               ; preds = %60, %54, %48, %35
  %64 = load ptr, ptr %17, align 8
  %65 = load ptr, ptr %13, align 8
  %66 = ptrtoint ptr %64 to i64
  %67 = ptrtoint ptr %65 to i64
  %68 = sub i64 %66, %67
  %69 = trunc i64 %68 to i32
  %70 = load i32, ptr %12, align 4
  %71 = add i32 %70, %69
  store i32 %71, ptr %12, align 4
  %72 = load ptr, ptr %17, align 8
  store ptr %72, ptr %13, align 8
  %73 = load ptr, ptr %13, align 8
  %74 = load ptr, ptr %14, align 8
  %75 = call i32 @get_token_len(ptr noundef %73, ptr noundef %74, ptr noundef %17)
  store i32 %75, ptr %19, align 4
  %76 = load ptr, ptr %9, align 8
  %77 = getelementptr inbounds nuw %struct._packet_info, ptr %76, i32 0, i32 51
  %78 = load ptr, ptr %77, align 8
  %79 = load ptr, ptr %10, align 8
  %80 = load i32, ptr %12, align 4
  %81 = load i32, ptr %19, align 4
  %82 = call ptr @tvb_get_string_enc(ptr noundef %78, ptr noundef %79, i32 noundef %80, i32 noundef %81, i32 noundef 0)
  store ptr %82, ptr %18, align 8
  %83 = load ptr, ptr %18, align 8
  %84 = icmp eq ptr %83, null
  br i1 %84, label %85, label %92

85:                                               ; preds = %63
  %86 = load ptr, ptr %16, align 8
  %87 = icmp ne ptr %86, null
  br i1 %87, label %88, label %92

88:                                               ; preds = %85
  %89 = load ptr, ptr %16, align 8
  %90 = getelementptr inbounds nuw %struct._http_req_res_t, ptr %89, i32 0, i32 7
  %91 = load ptr, ptr %90, align 8
  store ptr %91, ptr %18, align 8
  br label %92

92:                                               ; preds = %88, %85, %63
  %93 = load ptr, ptr %9, align 8
  %94 = getelementptr inbounds nuw %struct._packet_info, ptr %93, i32 0, i32 51
  %95 = load ptr, ptr %94, align 8
  %96 = load ptr, ptr %18, align 8
  %97 = call noalias ptr @wmem_strdup(ptr noundef %95, ptr noundef %96)
  %98 = load ptr, ptr %21, align 8
  %99 = getelementptr inbounds nuw %struct._http_info_value_t, ptr %98, i32 0, i32 4
  store ptr %97, ptr %99, align 8
  %100 = load ptr, ptr %9, align 8
  %101 = getelementptr inbounds nuw %struct._packet_info, ptr %100, i32 0, i32 8
  %102 = load ptr, ptr %101, align 8
  %103 = getelementptr inbounds nuw %struct._frame_data, ptr %102, i32 0, i32 11
  %104 = load i16, ptr %103, align 1
  %105 = lshr i16 %104, 3
  %106 = and i16 %105, 1
  %107 = zext i16 %106 to i32
  %108 = icmp ne i32 %107, 0
  br i1 %108, label %118, label %109

109:                                              ; preds = %92
  %110 = load ptr, ptr %16, align 8
  %111 = icmp ne ptr %110, null
  br i1 %111, label %112, label %118

112:                                              ; preds = %109
  %113 = call ptr @wmem_file_scope()
  %114 = load ptr, ptr %18, align 8
  %115 = call noalias ptr @wmem_strdup(ptr noundef %113, ptr noundef %114)
  %116 = load ptr, ptr %16, align 8
  %117 = getelementptr inbounds nuw %struct._http_req_res_t, ptr %116, i32 0, i32 7
  store ptr %115, ptr %117, align 8
  br label %118

118:                                              ; preds = %112, %109, %92
  %119 = load ptr, ptr %11, align 8
  %120 = load i32, ptr @hf_http_request_uri, align 4
  %121 = load ptr, ptr %10, align 8
  %122 = load i32, ptr %12, align 4
  %123 = load i32, ptr %19, align 4
  %124 = load ptr, ptr %18, align 8
  %125 = call ptr @proto_tree_add_string(ptr noundef %119, i32 noundef %120, ptr noundef %121, i32 noundef %122, i32 noundef %123, ptr noundef %124)
  store ptr %125, ptr %20, align 8
  %126 = load ptr, ptr %10, align 8
  %127 = load ptr, ptr %9, align 8
  %128 = load ptr, ptr %20, align 8
  %129 = load i32, ptr %12, align 4
  %130 = load i32, ptr %19, align 4
  call void @http_add_path_components_to_tree(ptr noundef %126, ptr noundef %127, ptr noundef %128, i32 noundef %129, i32 noundef %130)
  %131 = load ptr, ptr %17, align 8
  %132 = load ptr, ptr %13, align 8
  %133 = ptrtoint ptr %131 to i64
  %134 = ptrtoint ptr %132 to i64
  %135 = sub i64 %133, %134
  %136 = trunc i64 %135 to i32
  %137 = load i32, ptr %12, align 4
  %138 = add i32 %137, %136
  store i32 %138, ptr %12, align 4
  %139 = load ptr, ptr %17, align 8
  store ptr %139, ptr %13, align 8
  %140 = load ptr, ptr %14, align 8
  %141 = load ptr, ptr %13, align 8
  %142 = ptrtoint ptr %140 to i64
  %143 = ptrtoint ptr %141 to i64
  %144 = sub i64 %142, %143
  %145 = trunc i64 %144 to i32
  store i32 %145, ptr %19, align 4
  %146 = load ptr, ptr %11, align 8
  %147 = load i32, ptr @hf_http_request_version, align 4
  %148 = load ptr, ptr %10, align 8
  %149 = load i32, ptr %12, align 4
  %150 = load i32, ptr %19, align 4
  %151 = call ptr @proto_tree_add_item(ptr noundef %146, i32 noundef %147, ptr noundef %148, i32 noundef %149, i32 noundef %150, i32 noundef 0)
  store i32 0, ptr %22, align 4
  br label %152

152:                                              ; preds = %118, %34
  call void @llvm.lifetime.end.p0(i64 8, ptr %21) #19
  call void @llvm.lifetime.end.p0(i64 8, ptr %20) #19
  call void @llvm.lifetime.end.p0(i64 4, ptr %19) #19
  call void @llvm.lifetime.end.p0(i64 8, ptr %18) #19
  call void @llvm.lifetime.end.p0(i64 8, ptr %17) #19
  %153 = load i32, ptr %22, align 4
  switch i32 %153, label %155 [
    i32 0, label %154
    i32 1, label %154
  ]

154:                                              ; preds = %152, %152
  ret void

155:                                              ; preds = %152
  unreachable
}