; Function Attrs: null_pointer_is_valid sspstrong uwtable
define internal void @basic_request_dissector(ptr noundef %0, ptr noundef %1, ptr noundef %2, i32 noundef %3, ptr noundef %4, ptr noundef %5, ptr readnone captures(none) %6, ptr noundef captures(address_is_null) %7) #0 {
  %9 = alloca ptr, align 8
  call void @llvm.lifetime.start.p0(i64 8, ptr nonnull %9) #21
  %10 = getelementptr inbounds nuw i8, ptr %0, i64 408
  %11 = load ptr, ptr %10, align 8
  %12 = load i32, ptr @proto_http, align 4
  %13 = tail call ptr @p_get_proto_data(ptr noundef %11, ptr noundef %0, i32 noundef %12, i32 noundef 1)
  %14 = call i32 @get_token_len(ptr noundef %4, ptr noundef %5, ptr noundef nonnull %9)
  %15 = icmp eq i32 %14, 0
  br i1 %15, label %72, label %16

16:                                               ; preds = %8
  %17 = load i32, ptr @hf_http_request_method, align 4
  %18 = call ptr @proto_tree_add_item(ptr noundef %2, i32 noundef %17, ptr noundef %1, i32 noundef %3, i32 noundef %14, i32 noundef 0)
  %19 = load ptr, ptr %9, align 8
  %20 = ptrtoint ptr %19 to i64
  %21 = ptrtoint ptr %4 to i64
  %22 = sub i64 %20, %21
  %23 = icmp sgt i64 %22, 2
  br i1 %23, label %24, label %33

24:                                               ; preds = %16
  %25 = getelementptr i8, ptr %19, i64 -1
  %26 = load i8, ptr %25, align 1
  %27 = icmp eq i8 %26, 32
  br i1 %27, label %28, label %33

28:                                               ; preds = %24
  %29 = getelementptr i8, ptr %19, i64 -2
  %30 = load i8, ptr %29, align 1
  %31 = icmp eq i8 %30, 32
  br i1 %31, label %32, label %33

32:                                               ; preds = %28
  store ptr %25, ptr %9, align 8
  %.pre = ptrtoint ptr %25 to i64
  %.pre50 = sub i64 %.pre, %21
  br label %33

33:                                               ; preds = %32, %28, %24, %16
  %.pre-phi51 = phi i64 [ %.pre50, %32 ], [ %22, %28 ], [ %22, %24 ], [ %22, %16 ]
  %.pre-phi = phi i64 [ %.pre, %32 ], [ %20, %28 ], [ %20, %24 ], [ %20, %16 ]
  %34 = phi ptr [ %25, %32 ], [ %19, %28 ], [ %19, %24 ], [ %19, %16 ]
  %35 = trunc i64 %.pre-phi51 to i32
  %36 = add i32 %3, %35
  %37 = call i32 @get_token_len(ptr noundef %34, ptr noundef %5, ptr noundef nonnull %9)
  %38 = load ptr, ptr %10, align 8
  %39 = call ptr @tvb_get_string_enc(ptr noundef %38, ptr noundef %1, i32 noundef %36, i32 noundef %37, i32 noundef 0)
  %40 = icmp eq ptr %39, null
  %41 = icmp ne ptr %7, null
  %or.cond = and i1 %41, %40
  br i1 %or.cond, label %42, label %45

42:                                               ; preds = %33
  %43 = getelementptr inbounds nuw i8, ptr %7, i64 56
  %44 = load ptr, ptr %43, align 8
  br label %45

45:                                               ; preds = %42, %33
  %.0 = phi ptr [ %44, %42 ], [ %39, %33 ]
  %46 = load ptr, ptr %10, align 8
  %47 = call noalias ptr @wmem_strdup(ptr noundef %46, ptr noundef %.0)
  %48 = getelementptr inbounds nuw i8, ptr %13, i64 32
  store ptr %47, ptr %48, align 8
  %49 = getelementptr inbounds nuw i8, ptr %0, i64 80
  %50 = load ptr, ptr %49, align 8
  %51 = getelementptr inbounds nuw i8, ptr %50, i64 57
  %52 = load i16, ptr %51, align 1
  %53 = and i16 %52, 8
  %54 = icmp eq i16 %53, 0
  %or.cond3 = and i1 %41, %54
  br i1 %or.cond3, label %55, label %59

55:                                               ; preds = %45
  %56 = call ptr @wmem_file_scope()
  %57 = call noalias ptr @wmem_strdup(ptr noundef %56, ptr noundef %.0)
  %58 = getelementptr inbounds nuw i8, ptr %7, i64 56
  store ptr %57, ptr %58, align 8
  br label %59

59:                                               ; preds = %55, %45
  %60 = load i32, ptr @hf_http_request_uri, align 4
  %61 = call ptr @proto_tree_add_string(ptr noundef %2, i32 noundef %60, ptr noundef %1, i32 noundef %36, i32 noundef %37, ptr noundef %.0)
  call void @http_add_path_components_to_tree(ptr noundef %1, ptr poison, ptr noundef %61, i32 noundef %36, i32 noundef %37)
  %62 = load ptr, ptr %9, align 8
  %63 = ptrtoint ptr %62 to i64
  %64 = sub i64 %63, %.pre-phi
  %65 = trunc i64 %64 to i32
  %66 = add i32 %36, %65
  %67 = ptrtoint ptr %5 to i64
  %68 = sub i64 %67, %63
  %69 = trunc i64 %68 to i32
  %70 = load i32, ptr @hf_http_request_version, align 4
  %71 = call ptr @proto_tree_add_item(ptr noundef %2, i32 noundef %70, ptr noundef %1, i32 noundef %66, i32 noundef %69, i32 noundef 0)
  br label %72

72:                                               ; preds = %8, %59
  call void @llvm.lifetime.end.p0(i64 8, ptr nonnull %9) #21
  ret void
}